Certificate:
    Data:
        Version: 3 (0x2)
        Serial Number: 1 (0x1)
    Signature Algorithm: bign-with-hbelt
        Issuer: CN=www.mydom.com, O=My Dom, Inc., C=US, ST=Oregon, L=Portland
        Validity
            Not Before: Aug 20 18:38:31 2014 GMT
            Not After : Aug 20 18:38:31 2015 GMT
        Subject: C=US, ST=Oregon, O=My Dom, Inc., CN=www.mydom.com
        Subject Public Key Info:
            Public Key Algorithm: bign-pubkey
                Public key: 5C5F1501106525201437BF20C84EAD001ED4CBFD395E8CAB9AEB01E179667EF16DFE1339677A60F8D9E679EE1F90FD70905CE325787B12B737D71EE26F937D11
                Parameter set: bign-curve256v1
        X509v3 extensions:
            X509v3 Basic Constraints: 
                CA:FALSE
            Netscape Comment: 
                OpenSSL Generated Certificate
            X509v3 Subject Key Identifier: 
                15:F9:B1:EA:E9:D6:55:D6:AC:93:16:25:CD:84:86:8D:E6:80:93:25
            X509v3 Authority Key Identifier: 
                keyid:15:F9:B1:EA:E9:D6:55:D6:AC:93:16:25:CD:84:86:8D:E6:80:93:25

    Signature Algorithm: bign-with-hbelt
         8d:83:7f:78:aa:3d:c5:78:35:3c:e1:5c:e2:7d:17:e0:18:b7:
         94:22:01:ea:1a:6a:1f:74:2d:07:e6:37:16:85:c0:8a:96:91:
         72:76:2e:50:08:da:d2:4a:76:d5:3e:b4
-----BEGIN CERTIFICATE-----
MIICCjCCAcSgAwIBAgIBATANBgkqcAACACJlLQwFADBgMRYwFAYDVQQDDA13d3cu
bXlkb20uY29tMRUwEwYDVQQKDAxNeSBEb20sIEluYy4xCzAJBgNVBAYTAlVTMQ8w
DQYDVQQIDAZPcmVnb24xETAPBgNVBAcMCFBvcnRsYW5kMB4XDTE0MDgyMDE4Mzgz
MVoXDTE1MDgyMDE4MzgzMVowTTELMAkGA1UEBhMCVVMxDzANBgNVBAgMBk9yZWdv
bjEVMBMGA1UECgwMTXkgRG9tLCBJbmMuMRYwFAYDVQQDDA13d3cubXlkb20uY29t
MF0wGAYKKnAAAgAiZS0CAQYKKnAAAgAiZS0DAQNBAFxfFQEQZSUgFDe/IMhOrQAe
1Mv9OV6Mq5rrAeF5Zn7xbf4TOWd6YPjZ5nnuH5D9cJBc4yV4exK3N9ce4m+TfRGj
ezB5MAkGA1UdEwQCMAAwLAYJYIZIAYb4QgENBB8WHU9wZW5TU0wgR2VuZXJhdGVk
IENlcnRpZmljYXRlMB0GA1UdDgQWBBQV+bHq6dZV1qyTFiXNhIaN5oCTJTAfBgNV
HSMEGDAWgBQV+bHq6dZV1qyTFiXNhIaN5oCTJTANBgkqcAACACJlLQwFAAMxAI2D
f3iqPcV4NTzhXOJ9F+AYt5QiAeoaah90LQfmNxaFwIqWkXJ2LlAI2tJKdtU+tA==
-----END CERTIFICATE-----
